target datalayout = "e-m:e-p270:32:32-p271:32:32-p272:64:64-i64:64-i128:128-f80:128-n8:16:32:64-S128"
target triple = "x86_64-pc-linux-gnu"

%struct.rb_callable_method_entry_struct = type { i64, i64, ptr, i64, i64 }

; Function Attrs: nounwind sspstrong uwtable
define hidden i32 @rb_get_cme_def_type(ptr noundef %0) #0 {
  %2 = alloca i32, align 4
  %3 = alloca ptr, align 8
  store ptr %0, ptr %3, align 8, !tbaa !49
  %4 = load ptr, ptr %3, align 8, !tbaa !49
  %5 = icmp ne ptr %4, null
  br i1 %5, label %6, label %19

6:                                                ; preds = %1
  %7 = load ptr, ptr %3, align 8, !tbaa !49
  %8 = getelementptr inbounds nuw %struct.rb_callable_method_entry_struct, ptr %7, i32 0, i32 2
  %9 = load ptr, ptr %8, align 8, !tbaa !51
  %10 = icmp ne ptr %9, null
  br i1 %10, label %11, label %19

11:                                               ; preds = %6
  %12 = load ptr, ptr %3, align 8, !tbaa !49
  %13 = getelementptr inbounds nuw %struct.rb_callable_method_entry_struct, ptr %12, i32 0, i32 2
  %14 = load ptr, ptr %13, align 8, !tbaa !51
  %15 = load i64, ptr %14, align 8
  %16 = and i64 %15, 15
  %17 = trunc i64 %16 to i32
  %18 = icmp eq i32 %17, 7
  br i1 %18, label %19, label %20

19:                                               ; preds = %11, %6, %1
  store i32 7, ptr %2, align 4
  br label %27

20:                                               ; preds = %11
  %21 = load ptr, ptr %3, align 8, !tbaa !49
  %22 = getelementptr inbounds nuw %struct.rb_callable_method_entry_struct, ptr %21, i32 0, i32 2
  %23 = load ptr, ptr %22, align 8, !tbaa !51
  %24 = load i64, ptr %23, align 8
  %25 = and i64 %24, 15
  %26 = trunc i64 %25 to i32
  store i32 %26, ptr %2, align 4
  br label %27

27:                                               ; preds = %20, %19
  %28 = load i32, ptr %2, align 4
  ret i32 %28
}