; Function Attrs: mustprogress nofree norecurse nosync nounwind sspstrong willreturn memory(read, inaccessiblemem: none) uwtable
define hidden range(i32 0, 16) i32 @rb_get_cme_def_type(ptr noundef readonly captures(address_is_null) %0) local_unnamed_addr #4 {
  %.not = icmp eq ptr %0, null
  br i1 %.not, label %9, label %2

2:                                                ; preds = %1
  %3 = getelementptr inbounds nuw i8, ptr %0, i64 16
  %4 = load ptr, ptr %3, align 8, !tbaa !59
  %.not7 = icmp eq ptr %4, null
  br i1 %.not7, label %9, label %5

5:                                                ; preds = %2
  %6 = load i64, ptr %4, align 8
  %7 = trunc i64 %6 to i32
  %8 = and i32 %7, 15
  br label %9

9:                                                ; preds = %5, %1, %2
  %.0 = phi i32 [ 7, %2 ], [ 7, %1 ], [ %8, %5 ]
  ret i32 %.0
}